; Function Attrs: nounwind uwtable
define ptr @CONF_load_bio(ptr noundef %0, ptr noundef %1, ptr noundef %2) local_unnamed_addr #0 {
  %4 = alloca %struct.conf_st, align 8
  call void @llvm.lifetime.start.p0(i64 48, ptr nonnull %4) #15
  %5 = load ptr, ptr @default_CONF_method, align 8, !tbaa !3
  %6 = icmp eq ptr %5, null
  br i1 %6, label %7, label %CONF_set_nconf.exit

7:                                                ; preds = %3
  %8 = tail call ptr @NCONF_default() #15
  store ptr %8, ptr @default_CONF_method, align 8, !tbaa !3
  br label %CONF_set_nconf.exit

CONF_set_nconf.exit:                              ; preds = %3, %7
  %9 = phi ptr [ %8, %7 ], [ %5, %3 ]
  %10 = getelementptr inbounds nuw i8, ptr %9, i64 16
  %11 = load ptr, ptr %10, align 8, !tbaa !8
  %12 = call i32 %11(ptr noundef nonnull %4) #15
  %13 = getelementptr inbounds nuw i8, ptr %4, i64 16
  store ptr %0, ptr %13, align 8, !tbaa !11
  %14 = load ptr, ptr %4, align 8, !tbaa !16
  %15 = getelementptr inbounds nuw i8, ptr %14, i64 40
  %16 = load ptr, ptr %15, align 8, !tbaa !17
  %17 = call i32 %16(ptr noundef nonnull %4, ptr noundef %1, ptr noundef %2) #15
  %.not = icmp eq i32 %17, 0
  %18 = load ptr, ptr %13, align 8
  %.0 = select i1 %.not, ptr null, ptr %18
  call void @llvm.lifetime.end.p0(i64 48, ptr nonnull %4) #15
  ret ptr %.0
}